target datalayout = "e-m:e-p270:32:32-p271:32:32-p272:64:64-i64:64-i128:128-f80:128-n8:16:32:64-S128"
target triple = "x86_64-pc-linux-gnu"

%class.ErrorHandler = type <{ i32, i32, i8, i8, i8, i8, i8, i8, [2 x i8] }>
%class.Array = type { ptr, i64, i64, i64 }

@ErrHandler = external global %class.ErrorHandler, align 4

; Function Attrs: mustprogress uwtable
define linkonce_odr void @_ZN5ArrayIhE3AddEm(ptr noundef nonnull align 8 dereferenceable(32) %0, i64 noundef %1) #1 comdat align 2 {
  %3 = alloca ptr, align 8
  %4 = alloca i64, align 8
  %5 = alloca i64, align 8
  %6 = alloca i64, align 8
  %7 = alloca ptr, align 8
  store ptr %0, ptr %3, align 8
  store i64 %1, ptr %4, align 8
  %8 = load ptr, ptr %3, align 8
  %9 = load i64, ptr %4, align 8
  %10 = getelementptr inbounds %class.Array, ptr %8, i32 0, i32 1
  %11 = load i64, ptr %10, align 8
  %12 = add i64 %11, %9
  store i64 %12, ptr %10, align 8
  %13 = getelementptr inbounds %class.Array, ptr %8, i32 0, i32 1
  %14 = load i64, ptr %13, align 8
  %15 = getelementptr inbounds %class.Array, ptr %8, i32 0, i32 2
  %16 = load i64, ptr %15, align 8
  %17 = icmp ugt i64 %14, %16
  br i1 %17, label %18, label %63

18:                                               ; preds = %2
  %19 = getelementptr inbounds %class.Array, ptr %8, i32 0, i32 3
  %20 = load i64, ptr %19, align 8
  %21 = icmp ne i64 %20, 0
  br i1 %21, label %22, label %31

22:                                               ; preds = %18
  %23 = getelementptr inbounds %class.Array, ptr %8, i32 0, i32 1
  %24 = load i64, ptr %23, align 8
  %25 = getelementptr inbounds %class.Array, ptr %8, i32 0, i32 3
  %26 = load i64, ptr %25, align 8
  %27 = icmp ugt i64 %24, %26
  br i1 %27, label %28, label %31

28:                                               ; preds = %22
  %29 = getelementptr inbounds %class.Array, ptr %8, i32 0, i32 3
  %30 = load i64, ptr %29, align 8
  call void (ptr, ptr, ...) @_ZN12ErrorHandler13GeneralErrMsgEPKwz(ptr noundef nonnull align 4 dereferenceable(14) @ErrHandler, ptr noundef @.str, i64 noundef %30)
  call void @_ZN12ErrorHandler11MemoryErrorEv(ptr noundef nonnull align 4 dereferenceable(14) @ErrHandler)
  br label %31

31:                                               ; preds = %28, %22, %18
  %32 = getelementptr inbounds %class.Array, ptr %8, i32 0, i32 2
  %33 = load i64, ptr %32, align 8
  %34 = getelementptr inbounds %class.Array, ptr %8, i32 0, i32 2
  %35 = load i64, ptr %34, align 8
  %36 = udiv i64 %35, 4
  %37 = add i64 %33, %36
  %38 = add i64 %37, 32
  store i64 %38, ptr %5, align 8
  %39 = getelementptr inbounds %class.Array, ptr %8, i32 0, i32 1
  %40 = load i64, ptr %39, align 8
  %41 = load i64, ptr %5, align 8
  %42 = icmp ugt i64 %40, %41
  br i1 %42, label %43, label %46

43:                                               ; preds = %31
  %44 = getelementptr inbounds %class.Array, ptr %8, i32 0, i32 1
  %45 = load i64, ptr %44, align 8
  br label %48

46:                                               ; preds = %31
  %47 = load i64, ptr %5, align 8
  br label %48

48:                                               ; preds = %46, %43
  %49 = phi i64 [ %45, %43 ], [ %47, %46 ]
  store i64 %49, ptr %6, align 8
  %50 = getelementptr inbounds %class.Array, ptr %8, i32 0, i32 0
  %51 = load ptr, ptr %50, align 8
  %52 = load i64, ptr %6, align 8
  %53 = mul i64 %52, 1
  %54 = call ptr @realloc(ptr noundef %51, i64 noundef %53) #14
  store ptr %54, ptr %7, align 8
  %55 = load ptr, ptr %7, align 8
  %56 = icmp eq ptr %55, null
  br i1 %56, label %57, label %58

57:                                               ; preds = %48
  call void @_ZN12ErrorHandler11MemoryErrorEv(ptr noundef nonnull align 4 dereferenceable(14) @ErrHandler)
  br label %58

58:                                               ; preds = %57, %48
  %59 = load ptr, ptr %7, align 8
  %60 = getelementptr inbounds %class.Array, ptr %8, i32 0, i32 0
  store ptr %59, ptr %60, align 8
  %61 = load i64, ptr %6, align 8
  %62 = getelementptr inbounds %class.Array, ptr %8, i32 0, i32 2
  store i64 %61, ptr %62, align 8
  br label %63

63:                                               ; preds = %58, %2
  ret void
}

; Function Attrs: mustprogress nounwind uwtable
define linkonce_odr void @_ZN5ArrayIhE9CleanDataEv(ptr noundef nonnull align 8 dereferenceable(32) %0) #0 comdat align 2 {
  %2 = alloca ptr, align 8
  store ptr %0, ptr %2, align 8
  %3 = load ptr, ptr %2, align 8
  %4 = getelementptr inbounds %class.Array, ptr %3, i32 0, i32 0
  store ptr null, ptr %4, align 8
  %5 = getelementptr inbounds %class.Array, ptr %3, i32 0, i32 1
  store i64 0, ptr %5, align 8
  %6 = getelementptr inbounds %class.Array, ptr %3, i32 0, i32 2
  store i64 0, ptr %6, align 8
  %7 = getelementptr inbounds %class.Array, ptr %3, i32 0, i32 3
  store i64 0, ptr %7, align 8
  ret void
}

; Function Attrs: mustprogress nounwind uwtable
define linkonce_odr void @_ZN5ArrayIhED2Ev(ptr noundef nonnull align 8 dereferenceable(32) %0) unnamed_addr #0 comdat align 2 {
  %2 = alloca ptr, align 8
  store ptr %0, ptr %2, align 8
  %3 = load ptr, ptr %2, align 8
  %4 = getelementptr inbounds %class.Array, ptr %3, i32 0, i32 0
  %5 = load ptr, ptr %4, align 8
  %6 = icmp ne ptr %5, null
  br i1 %6, label %7, label %10

7:                                                ; preds = %1
  %8 = getelementptr inbounds %class.Array, ptr %3, i32 0, i32 0
  %9 = load ptr, ptr %8, align 8
  call void @free(ptr noundef %9) #10
  br label %10

10:                                               ; preds = %7, %1
  ret void
}

; Function Attrs: mustprogress nounwind uwtable
define linkonce_odr noundef nonnull align 1 dereferenceable(1) ptr @_ZNK5ArrayIhEixEm(ptr noundef nonnull align 8 dereferenceable(32) %0, i64 noundef %1) #0 comdat align 2 {
  %3 = alloca ptr, align 8
  %4 = alloca i64, align 8
  store ptr %0, ptr %3, align 8
  store i64 %1, ptr %4, align 8
  %5 = load ptr, ptr %3, align 8
  %6 = getelementptr inbounds %class.Array, ptr %5, i32 0, i32 0
  %7 = load ptr, ptr %6, align 8
  %8 = load i64, ptr %4, align 8
  %9 = getelementptr inbounds i8, ptr %7, i64 %8
  ret ptr %9
}

; Function Attrs: mustprogress nounwind uwtable
define linkonce_odr noundef i64 @_ZN5ArrayIhE4SizeEv(ptr noundef nonnull align 8 dereferenceable(32) %0) #0 comdat align 2 {
  %2 = alloca ptr, align 8
  store ptr %0, ptr %2, align 8
  %3 = load ptr, ptr %2, align 8
  %4 = getelementptr inbounds %class.Array, ptr %3, i32 0, i32 1
  %5 = load i64, ptr %4, align 8
  ret i64 %5
}

; Function Attrs: mustprogress uwtable
define linkonce_odr void @_ZN5ArrayIhEC2Em(ptr noundef nonnull align 8 dereferenceable(32) %0, i64 noundef %1) unnamed_addr #1 comdat align 2 {
  %3 = alloca ptr, align 8
  %4 = alloca i64, align 8
  store ptr %0, ptr %3, align 8
  store i64 %1, ptr %4, align 8
  %5 = load ptr, ptr %3, align 8
  call void @_ZN5ArrayIhE9CleanDataEv(ptr noundef nonnull align 8 dereferenceable(32) %5)
  %6 = load i64, ptr %4, align 8
  call void @_ZN5ArrayIhE3AddEm(ptr noundef nonnull align 8 dereferenceable(32) %5, i64 noundef %6)
  ret void
}

; Function Attrs: mustprogress nounwind uwtable
define linkonce_odr noundef i64 @_ZN4File14CopyBufferSizeEv() #0 comdat align 2 {
  ret i64 1048576
}

; Function Attrs: mustprogress uwtable
define noundef i64 @_ZN4File4CopyERS_l(ptr noundef nonnull align 8 dereferenceable(8256) %0, ptr noundef nonnull align 8 dereferenceable(8256) %1, i64 noundef %2) #1 align 2 personality ptr @__gxx_personality_v0 {
  %4 = alloca ptr, align 8
  %5 = alloca ptr, align 8
  %6 = alloca i64, align 8
  %7 = alloca %class.Array, align 8
  %8 = alloca i64, align 8
  %9 = alloca i8, align 1
  %10 = alloca ptr, align 8
  %11 = alloca i32, align 4
  %12 = alloca i64, align 8
  %13 = alloca ptr, align 8
  %14 = alloca i32, align 4
  %15 = alloca i64, align 8
  store ptr %0, ptr %4, align 8
  store ptr %1, ptr %5, align 8
  store i64 %2, ptr %6, align 8
  %16 = load ptr, ptr %4, align 8
  %17 = call noundef i64 @_ZN4File14CopyBufferSizeEv()
  call void @_ZN5ArrayIhEC2Em(ptr noundef nonnull align 8 dereferenceable(32) %7, i64 noundef %17)
  store i64 0, ptr %8, align 8
  %18 = load i64, ptr %6, align 8
  %19 = icmp eq i64 %18, 9223372034707292159
  %20 = zext i1 %19 to i8
  store i8 %20, ptr %9, align 1
  br label %21

21:                                               ; preds = %80, %3
  %22 = load i8, ptr %9, align 1
  %23 = trunc i8 %22 to i1
  br i1 %23, label %27, label %24

24:                                               ; preds = %21
  %25 = load i64, ptr %6, align 8
  %26 = icmp sgt i64 %25, 0
  br label %27

27:                                               ; preds = %24, %21
  %28 = phi i1 [ true, %21 ], [ %26, %24 ]
  br i1 %28, label %29, label %81

29:                                               ; preds = %27
  invoke void @_Z4Waitv()
          to label %30 unwind label %57

30:                                               ; preds = %29
  %31 = load i8, ptr %9, align 1
  %32 = trunc i8 %31 to i1
  br i1 %32, label %40, label %33

33:                                               ; preds = %30
  %34 = load i64, ptr %6, align 8
  %35 = invoke noundef i64 @_ZN5ArrayIhE4SizeEv(ptr noundef nonnull align 8 dereferenceable(32) %7)
          to label %36 unwind label %57

36:                                               ; preds = %33
  %37 = icmp slt i64 %34, %35
  br i1 %37, label %38, label %40

38:                                               ; preds = %36
  %39 = load i64, ptr %6, align 8
  br label %43

40:                                               ; preds = %36, %30
  %41 = invoke noundef i64 @_ZN5ArrayIhE4SizeEv(ptr noundef nonnull align 8 dereferenceable(32) %7)
          to label %42 unwind label %57

42:                                               ; preds = %40
  br label %43

43:                                               ; preds = %42, %38
  %44 = phi i64 [ %39, %38 ], [ %41, %42 ]
  store i64 %44, ptr %12, align 8
  %45 = invoke noundef nonnull align 1 dereferenceable(1) ptr @_ZNK5ArrayIhEixEm(ptr noundef nonnull align 8 dereferenceable(32) %7, i64 noundef 0)
          to label %46 unwind label %57

46:                                               ; preds = %43
  store ptr %45, ptr %13, align 8
  %47 = load ptr, ptr %13, align 8
  %48 = load i64, ptr %12, align 8
  %49 = load ptr, ptr %16, align 8
  %50 = getelementptr inbounds ptr, ptr %49, i64 4
  %51 = load ptr, ptr %50, align 8
  %52 = invoke noundef i32 %51(ptr noundef nonnull align 8 dereferenceable(8256) %16, ptr noundef %47, i64 noundef %48)
          to label %53 unwind label %57

53:                                               ; preds = %46
  store i32 %52, ptr %14, align 4
  %54 = load i32, ptr %14, align 4
  %55 = icmp eq i32 %54, 0
  br i1 %55, label %56, label %61

56:                                               ; preds = %53
  br label %81

57:                                               ; preds = %61, %46, %43, %40, %33, %29
  %58 = landingpad { ptr, i32 }
          cleanup
  %59 = extractvalue { ptr, i32 } %58, 0
  store ptr %59, ptr %10, align 8
  %60 = extractvalue { ptr, i32 } %58, 1
  store i32 %60, ptr %11, align 4
  call void @_ZN5ArrayIhED2Ev(ptr noundef nonnull align 8 dereferenceable(32) %7) #10
  br label %83

61:                                               ; preds = %53
  %62 = load i32, ptr %14, align 4
  %63 = sext i32 %62 to i64
  store i64 %63, ptr %15, align 8
  %64 = load ptr, ptr %5, align 8
  %65 = load ptr, ptr %13, align 8
  %66 = load i64, ptr %15, align 8
  %67 = invoke noundef zeroext i1 @_ZN4File5WriteEPKvm(ptr noundef nonnull align 8 dereferenceable(8256) %64, ptr noundef %65, i64 noundef %66)
          to label %68 unwind label %57

68:                                               ; preds = %61
  %69 = load i32, ptr %14, align 4
  %70 = sext i32 %69 to i64
  %71 = load i64, ptr %8, align 8
  %72 = add nsw i64 %71, %70
  store i64 %72, ptr %8, align 8
  %73 = load i8, ptr %9, align 1
  %74 = trunc i8 %73 to i1
  br i1 %74, label %80, label %75

75:                                               ; preds = %68
  %76 = load i32, ptr %14, align 4
  %77 = sext i32 %76 to i64
  %78 = load i64, ptr %6, align 8
  %79 = sub nsw i64 %78, %77
  store i64 %79, ptr %6, align 8
  br label %80

80:                                               ; preds = %75, %68
  br label %21, !llvm.loop !10

81:                                               ; preds = %56, %27
  %82 = load i64, ptr %8, align 8
  call void @_ZN5ArrayIhED2Ev(ptr noundef nonnull align 8 dereferenceable(32) %7) #10
  ret i64 %82

83:                                               ; preds = %57
  %84 = load ptr, ptr %10, align 8
  %85 = load i32, ptr %11, align 4
  %86 = insertvalue { ptr, i32 } poison, ptr %84, 0
  %87 = insertvalue { ptr, i32 } %86, i32 %85, 1
  resume { ptr, i32 } %87
}