; Function Attrs: mustprogress uwtable
define noundef i64 @_ZN4File4CopyERS_l(ptr noundef nonnull align 8 dereferenceable(8256) %0, ptr noundef nonnull align 8 dereferenceable(8256) %1, i64 noundef %2) local_unnamed_addr #2 align 2 personality ptr @__gxx_personality_v0 {
  %malloc.i = tail call dereferenceable_or_null(1048576) ptr @malloc(i64 1048576)
  %4 = icmp eq ptr %malloc.i, null
  br i1 %4, label %5, label %_ZN5ArrayIhEC2Em.exit

5:                                                ; preds = %3
  tail call void @_ZN12ErrorHandler11MemoryErrorEv(ptr noundef nonnull align 4 dereferenceable(14) @ErrHandler)
  br label %_ZN5ArrayIhEC2Em.exit

_ZN5ArrayIhEC2Em.exit:                            ; preds = %3, %5
  %6 = icmp sgt i64 %2, 0
  br i1 %6, label %.lr.ph, label %._crit_edge

.lr.ph:                                           ; preds = %_ZN5ArrayIhEC2Em.exit
  %7 = icmp eq i64 %2, 9223372034707292159
  br i1 %7, label %.lr.ph.split.us.split, label %.lr.ph.split

.lr.ph.split.us.split:                            ; preds = %.lr.ph, %18
  %.02131.us = phi i64 [ %19, %18 ], [ 0, %.lr.ph ]
  invoke void @_Z4Waitv()
          to label %8 unwind label %.split.us

8:                                                ; preds = %.lr.ph.split.us.split
  %9 = load ptr, ptr %0, align 8
  %10 = getelementptr inbounds i8, ptr %9, i64 32
  %11 = load ptr, ptr %10, align 8
  %12 = invoke noundef i32 %11(ptr noundef nonnull align 8 dereferenceable(8256) %0, ptr noundef nonnull %malloc.i, i64 noundef 1048576)
          to label %13 unwind label %.split.us

13:                                               ; preds = %8
  %14 = icmp eq i32 %12, 0
  br i1 %14, label %._crit_edge, label %15

15:                                               ; preds = %13
  %16 = sext i32 %12 to i64
  %17 = invoke noundef zeroext i1 @_ZN4File5WriteEPKvm(ptr noundef nonnull align 8 dereferenceable(8256) %1, ptr noundef nonnull %malloc.i, i64 noundef %16)
          to label %18 unwind label %.split.us

18:                                               ; preds = %15
  %19 = add nsw i64 %.02131.us, %16
  br label %.lr.ph.split.us.split

.split.us:                                        ; preds = %8, %15, %.lr.ph.split.us.split
  %20 = landingpad { ptr, i32 }
          cleanup
  br label %30

.lr.ph.split:                                     ; preds = %.lr.ph, %35
  %.032 = phi i64 [ %spec.select, %35 ], [ %2, %.lr.ph ]
  %.02131 = phi i64 [ %36, %35 ], [ 0, %.lr.ph ]
  invoke void @_Z4Waitv()
          to label %21 unwind label %.split

21:                                               ; preds = %.lr.ph.split
  %22 = tail call i64 @llvm.umin.i64(i64 %.032, i64 1048576)
  %23 = load ptr, ptr %0, align 8
  %24 = getelementptr inbounds i8, ptr %23, i64 32
  %25 = load ptr, ptr %24, align 8
  %26 = invoke noundef i32 %25(ptr noundef nonnull align 8 dereferenceable(8256) %0, ptr noundef nonnull %malloc.i, i64 noundef %22)
          to label %27 unwind label %.split

27:                                               ; preds = %21
  %28 = icmp eq i32 %26, 0
  br i1 %28, label %._crit_edge, label %32

.split:                                           ; preds = %32, %21, %.lr.ph.split
  %29 = landingpad { ptr, i32 }
          cleanup
  br label %30

30:                                               ; preds = %.split.us, %.split
  %.us-phi = phi { ptr, i32 } [ %29, %.split ], [ %20, %.split.us ]
  br i1 %4, label %_ZN5ArrayIhED2Ev.exit, label %31

31:                                               ; preds = %30
  tail call void @free(ptr noundef nonnull %malloc.i) #18
  br label %_ZN5ArrayIhED2Ev.exit

_ZN5ArrayIhED2Ev.exit:                            ; preds = %30, %31
  resume { ptr, i32 } %.us-phi

32:                                               ; preds = %27
  %33 = sext i32 %26 to i64
  %34 = invoke noundef zeroext i1 @_ZN4File5WriteEPKvm(ptr noundef nonnull align 8 dereferenceable(8256) %1, ptr noundef nonnull %malloc.i, i64 noundef %33)
          to label %35 unwind label %.split

35:                                               ; preds = %32
  %36 = add nsw i64 %.02131, %33
  %spec.select = sub nsw i64 %.032, %33
  %37 = icmp sgt i64 %spec.select, 0
  br i1 %37, label %.lr.ph.split, label %._crit_edge, !llvm.loop !10

._crit_edge:                                      ; preds = %35, %27, %13, %_ZN5ArrayIhEC2Em.exit
  %.021.lcssa = phi i64 [ 0, %_ZN5ArrayIhEC2Em.exit ], [ %.02131.us, %13 ], [ %.02131, %27 ], [ %36, %35 ]
  br i1 %4, label %_ZN5ArrayIhED2Ev.exit24, label %38

38:                                               ; preds = %._crit_edge
  tail call void @free(ptr noundef nonnull %malloc.i) #18
  br label %_ZN5ArrayIhED2Ev.exit24

_ZN5ArrayIhED2Ev.exit24:                          ; preds = %._crit_edge, %38
  ret i64 %.021.lcssa
}